target datalayout = "e-m:e-p270:32:32-p271:32:32-p272:64:64-i64:64-i128:128-f80:128-n8:16:32:64-S128"
target triple = "x86_64-unknown-linux-gnu"

%"class.google::protobuf::internal::InternalMetadata" = type { i64 }
%union.anon = type { %"struct.pb::JavaFeatures::Impl_" }
%"struct.pb::JavaFeatures::Impl_" = type { %"class.google::protobuf::internal::HasBits", %"class.google::protobuf::internal::CachedSize", i8, i32 }
%"class.google::protobuf::internal::HasBits" = type { [1 x i32] }
%"class.google::protobuf::internal::CachedSize" = type { i32 }
%"class.pb::JavaFeatures" = type { %"class.google::protobuf::Message", %union.anon }
%"class.google::protobuf::Message" = type { %"class.google::protobuf::MessageLite" }
%"class.google::protobuf::MessageLite" = type { ptr, %"class.google::protobuf::internal::InternalMetadata" }

; Function Attrs: mustprogress nounwind uwtable
define linkonce_odr void @_ZSt4swapIcENSt9enable_ifIXsr6__and_ISt6__not_ISt15__is_tuple_likeIT_EESt21is_move_constructibleIS3_ESt18is_move_assignableIS3_EEE5valueEvE4typeERS3_SC_(ptr noundef nonnull align 1 dereferenceable(1) %__a, ptr noundef nonnull align 1 dereferenceable(1) %__b) #5 comdat {
entry:
  %__a.addr = alloca ptr, align 8
  %__b.addr = alloca ptr, align 8
  %__tmp = alloca i8, align 1
  store ptr %__a, ptr %__a.addr, align 8
  store ptr %__b, ptr %__b.addr, align 8
  %0 = load ptr, ptr %__a.addr, align 8
  %1 = load i8, ptr %0, align 1
  store i8 %1, ptr %__tmp, align 1
  %2 = load ptr, ptr %__b.addr, align 8
  %3 = load i8, ptr %2, align 1
  %4 = load ptr, ptr %__a.addr, align 8
  store i8 %3, ptr %4, align 1
  %5 = load i8, ptr %__tmp, align 1
  %6 = load ptr, ptr %__b.addr, align 8
  store i8 %5, ptr %6, align 1
  ret void
}

; Function Attrs: mustprogress nounwind uwtable
define linkonce_odr void @_ZSt9iter_swapIPcS0_EvT_T0_(ptr noundef %__a, ptr noundef %__b) #5 comdat {
entry:
  %__a.addr = alloca ptr, align 8
  %__b.addr = alloca ptr, align 8
  store ptr %__a, ptr %__a.addr, align 8
  store ptr %__b, ptr %__b.addr, align 8
  %0 = load ptr, ptr %__a.addr, align 8
  %1 = load ptr, ptr %__b.addr, align 8
  call void @_ZSt4swapIcENSt9enable_ifIXsr6__and_ISt6__not_ISt15__is_tuple_likeIT_EESt21is_move_constructibleIS3_ESt18is_move_assignableIS3_EEE5valueEvE4typeERS3_SC_(ptr noundef nonnull align 1 dereferenceable(1) %0, ptr noundef nonnull align 1 dereferenceable(1) %1) #3
  ret void
}

; Function Attrs: mustprogress uwtable
define linkonce_odr noundef ptr @_ZSt11swap_rangesIPcS0_ET0_T_S2_S1_(ptr noundef %__first1, ptr noundef %__last1, ptr noundef %__first2) #4 comdat {
entry:
  %__first1.addr = alloca ptr, align 8
  %__last1.addr = alloca ptr, align 8
  %__first2.addr = alloca ptr, align 8
  store ptr %__first1, ptr %__first1.addr, align 8
  store ptr %__last1, ptr %__last1.addr, align 8
  store ptr %__first2, ptr %__first2.addr, align 8
  br label %for.cond

for.cond:                                         ; preds = %for.inc, %entry
  %0 = load ptr, ptr %__first1.addr, align 8
  %1 = load ptr, ptr %__last1.addr, align 8
  %cmp = icmp ne ptr %0, %1
  br i1 %cmp, label %for.body, label %for.end

for.body:                                         ; preds = %for.cond
  %2 = load ptr, ptr %__first1.addr, align 8
  %3 = load ptr, ptr %__first2.addr, align 8
  call void @_ZSt9iter_swapIPcS0_EvT_T0_(ptr noundef %2, ptr noundef %3)
  br label %for.inc

for.inc:                                          ; preds = %for.body
  %4 = load ptr, ptr %__first1.addr, align 8
  %incdec.ptr = getelementptr inbounds i8, ptr %4, i32 1
  store ptr %incdec.ptr, ptr %__first1.addr, align 8
  %5 = load ptr, ptr %__first2.addr, align 8
  %incdec.ptr1 = getelementptr inbounds i8, ptr %5, i32 1
  store ptr %incdec.ptr1, ptr %__first2.addr, align 8
  br label %for.cond, !llvm.loop !12

for.end:                                          ; preds = %for.cond
  %6 = load ptr, ptr %__first2.addr, align 8
  ret ptr %6
}

; Function Attrs: mustprogress uwtable
define linkonce_odr hidden void @_ZN6google8protobuf8internal7memswapILm8EEEvPcS3_(ptr noalias noundef %a, ptr noalias noundef %b) #4 comdat {
entry:
  %a.addr = alloca ptr, align 8
  %b.addr = alloca ptr, align 8
  store ptr %a, ptr %a.addr, align 8
  store ptr %b, ptr %b.addr, align 8
  %0 = load ptr, ptr %a.addr, align 8
  %1 = load ptr, ptr %a.addr, align 8
  %add.ptr = getelementptr inbounds i8, ptr %1, i64 8
  %2 = load ptr, ptr %b.addr, align 8
  %call = call noundef ptr @_ZSt11swap_rangesIPcS0_ET0_T_S2_S1_(ptr noundef %0, ptr noundef %add.ptr, ptr noundef %2)
  ret void
}

; Function Attrs: mustprogress nounwind uwtable
define linkonce_odr void @_ZSt4swapIjENSt9enable_ifIXsr6__and_ISt6__not_ISt15__is_tuple_likeIT_EESt21is_move_constructibleIS3_ESt18is_move_assignableIS3_EEE5valueEvE4typeERS3_SC_(ptr noundef nonnull align 4 dereferenceable(4) %__a, ptr noundef nonnull align 4 dereferenceable(4) %__b) #5 comdat {
entry:
  %__a.addr = alloca ptr, align 8
  %__b.addr = alloca ptr, align 8
  %__tmp = alloca i32, align 4
  store ptr %__a, ptr %__a.addr, align 8
  store ptr %__b, ptr %__b.addr, align 8
  %0 = load ptr, ptr %__a.addr, align 8
  %1 = load i32, ptr %0, align 4
  store i32 %1, ptr %__tmp, align 4
  %2 = load ptr, ptr %__b.addr, align 8
  %3 = load i32, ptr %2, align 4
  %4 = load ptr, ptr %__a.addr, align 8
  store i32 %3, ptr %4, align 4
  %5 = load i32, ptr %__tmp, align 4
  %6 = load ptr, ptr %__b.addr, align 8
  store i32 %5, ptr %6, align 4
  ret void
}

; Function Attrs: mustprogress nounwind uwtable
define linkonce_odr void @_ZSt4swapIlENSt9enable_ifIXsr6__and_ISt6__not_ISt15__is_tuple_likeIT_EESt21is_move_constructibleIS3_ESt18is_move_assignableIS3_EEE5valueEvE4typeERS3_SC_(ptr noundef nonnull align 8 dereferenceable(8) %__a, ptr noundef nonnull align 8 dereferenceable(8) %__b) #5 comdat {
entry:
  %__a.addr = alloca ptr, align 8
  %__b.addr = alloca ptr, align 8
  %__tmp = alloca i64, align 8
  store ptr %__a, ptr %__a.addr, align 8
  store ptr %__b, ptr %__b.addr, align 8
  %0 = load ptr, ptr %__a.addr, align 8
  %1 = load i64, ptr %0, align 8
  store i64 %1, ptr %__tmp, align 8
  %2 = load ptr, ptr %__b.addr, align 8
  %3 = load i64, ptr %2, align 8
  %4 = load ptr, ptr %__a.addr, align 8
  store i64 %3, ptr %4, align 8
  %5 = load i64, ptr %__tmp, align 8
  %6 = load ptr, ptr %__b.addr, align 8
  store i64 %5, ptr %6, align 8
  ret void
}

; Function Attrs: mustprogress uwtable
define void @_ZN2pb12JavaFeatures12InternalSwapEPS0_(ptr noundef nonnull align 8 dereferenceable(32) %this, ptr noalias noundef %other) #4 align 2 {
entry:
  %this.addr.i11 = alloca ptr, align 8
  %other.addr.i = alloca ptr, align 8
  %this.addr.i6 = alloca ptr, align 8
  %index.addr.i7 = alloca i32, align 4
  %this.addr.i = alloca ptr, align 8
  %index.addr.i = alloca i32, align 4
  %this.addr = alloca ptr, align 8
  %other.addr = alloca ptr, align 8
  store ptr %this, ptr %this.addr, align 8
  store ptr %other, ptr %other.addr, align 8
  %this1 = load ptr, ptr %this.addr, align 8
  %_internal_metadata_ = getelementptr inbounds %"class.google::protobuf::MessageLite", ptr %this1, i32 0, i32 1
  %0 = load ptr, ptr %other.addr, align 8
  %_internal_metadata_2 = getelementptr inbounds %"class.google::protobuf::MessageLite", ptr %0, i32 0, i32 1
  call void @llvm.experimental.noalias.scope.decl(metadata !6)
  store ptr %_internal_metadata_, ptr %this.addr.i11, align 8, !noalias !6
  store ptr %_internal_metadata_2, ptr %other.addr.i, align 8, !noalias !6
  %this1.i12 = load ptr, ptr %this.addr.i11, align 8, !noalias !6
  %1 = load ptr, ptr %other.addr.i, align 8, !noalias !6
  call void @_ZSt4swapIlENSt9enable_ifIXsr6__and_ISt6__not_ISt15__is_tuple_likeIT_EESt21is_move_constructibleIS3_ESt18is_move_assignableIS3_EEE5valueEvE4typeERS3_SC_(ptr noundef nonnull align 8 dereferenceable(8) %this1.i12, ptr noundef nonnull align 8 dereferenceable(8) %1) #3
  %2 = getelementptr inbounds %"class.pb::JavaFeatures", ptr %this1, i32 0, i32 1
  %_has_bits_ = getelementptr inbounds %"struct.pb::JavaFeatures::Impl_", ptr %2, i32 0, i32 0
  store ptr %_has_bits_, ptr %this.addr.i6, align 8
  store i32 0, ptr %index.addr.i7, align 4
  %this1.i8 = load ptr, ptr %this.addr.i6, align 8
  %3 = load i32, ptr %index.addr.i7, align 4
  %idxprom.i9 = sext i32 %3 to i64
  %arrayidx.i10 = getelementptr inbounds [1 x i32], ptr %this1.i8, i64 0, i64 %idxprom.i9
  %4 = load ptr, ptr %other.addr, align 8
  %5 = getelementptr inbounds %"class.pb::JavaFeatures", ptr %4, i32 0, i32 1
  %_has_bits_3 = getelementptr inbounds %"struct.pb::JavaFeatures::Impl_", ptr %5, i32 0, i32 0
  store ptr %_has_bits_3, ptr %this.addr.i, align 8
  store i32 0, ptr %index.addr.i, align 4
  %this1.i = load ptr, ptr %this.addr.i, align 8
  %6 = load i32, ptr %index.addr.i, align 4
  %idxprom.i = sext i32 %6 to i64
  %arrayidx.i = getelementptr inbounds [1 x i32], ptr %this1.i, i64 0, i64 %idxprom.i
  call void @_ZSt4swapIjENSt9enable_ifIXsr6__and_ISt6__not_ISt15__is_tuple_likeIT_EESt21is_move_constructibleIS3_ESt18is_move_assignableIS3_EEE5valueEvE4typeERS3_SC_(ptr noundef nonnull align 4 dereferenceable(4) %arrayidx.i10, ptr noundef nonnull align 4 dereferenceable(4) %arrayidx.i) #3
  %7 = getelementptr inbounds %"class.pb::JavaFeatures", ptr %this1, i32 0, i32 1
  %legacy_closed_enum_ = getelementptr inbounds %"struct.pb::JavaFeatures::Impl_", ptr %7, i32 0, i32 2
  %8 = load ptr, ptr %other.addr, align 8
  %9 = getelementptr inbounds %"class.pb::JavaFeatures", ptr %8, i32 0, i32 1
  %legacy_closed_enum_5 = getelementptr inbounds %"struct.pb::JavaFeatures::Impl_", ptr %9, i32 0, i32 2
  call void @_ZN6google8protobuf8internal7memswapILm8EEEvPcS3_(ptr noundef %legacy_closed_enum_, ptr noundef %legacy_closed_enum_5)
  ret void
}